target datalayout = "e-m:e-p270:32:32-p271:32:32-p272:64:64-i64:64-i128:128-f80:128-n8:16:32:64-S128"
target triple = "x86_64-pc-linux-gnu"

%struct.Map_ManStruct_t_ = type { ptr, i32, ptr, i32, ptr, i32, i32, ptr, ptr, ptr, ptr, ptr, ptr, ptr, ptr, i32, i32, i32, i32, float, float, float, float, i32, i32, float, i32, i32, i32, i32, ptr, [6 x [2 x i32]], [10 x [32 x i32]], [32 x i32], [32 x i32], ptr, ptr, ptr, ptr, ptr, ptr, i32, i32, i32, i32, i32, i32, i64, i64, i64, i64, i64, i64, i64, i64, i64, i64, i64 }
%struct.Map_TimeStruct_t_ = type { float, float, float }
%struct.Map_CutStruct_t_ = type { ptr, ptr, ptr, [6 x ptr], i32, i8, i8, i8, i8, [2 x %struct.Map_MatchStruct_t_] }
%struct.Map_MatchStruct_t_ = type { ptr, i32, i32, ptr, %struct.Map_TimeStruct_t_, float }
%struct.Map_CutTableStrutct_t = type { ptr, i32, ptr, i32, ptr, ptr, ptr }

; Function Attrs: nounwind uwtable
define internal ptr @Map_CutArray2List(ptr noundef %0, i32 noundef %1) #0 {
  %3 = alloca ptr, align 8
  %4 = alloca i32, align 4
  %5 = alloca ptr, align 8
  %6 = alloca ptr, align 8
  %7 = alloca i32, align 4
  store ptr %0, ptr %3, align 8, !tbaa !82
  store i32 %1, ptr %4, align 4, !tbaa !8
  call void @llvm.lifetime.start.p0(i64 8, ptr %5) #9
  call void @llvm.lifetime.start.p0(i64 8, ptr %6) #9
  call void @llvm.lifetime.start.p0(i64 4, ptr %7) #9
  store ptr null, ptr %5, align 8, !tbaa !30
  store ptr %5, ptr %6, align 8, !tbaa !82
  store i32 0, ptr %7, align 4, !tbaa !8
  br label %8

8:                                                ; preds = %25, %2
  %9 = load i32, ptr %7, align 4, !tbaa !8
  %10 = load i32, ptr %4, align 4, !tbaa !8
  %11 = icmp slt i32 %9, %10
  br i1 %11, label %12, label %28

12:                                               ; preds = %8
  %13 = load ptr, ptr %3, align 8, !tbaa !82
  %14 = load i32, ptr %7, align 4, !tbaa !8
  %15 = sext i32 %14 to i64
  %16 = getelementptr inbounds ptr, ptr %13, i64 %15
  %17 = load ptr, ptr %16, align 8, !tbaa !30
  %18 = load ptr, ptr %6, align 8, !tbaa !82
  store ptr %17, ptr %18, align 8, !tbaa !30
  %19 = load ptr, ptr %3, align 8, !tbaa !82
  %20 = load i32, ptr %7, align 4, !tbaa !8
  %21 = sext i32 %20 to i64
  %22 = getelementptr inbounds ptr, ptr %19, i64 %21
  %23 = load ptr, ptr %22, align 8, !tbaa !30
  %24 = getelementptr inbounds nuw %struct.Map_CutStruct_t_, ptr %23, i32 0, i32 0
  store ptr %24, ptr %6, align 8, !tbaa !82
  br label %25

25:                                               ; preds = %12
  %26 = load i32, ptr %7, align 4, !tbaa !8
  %27 = add nsw i32 %26, 1
  store i32 %27, ptr %7, align 4, !tbaa !8
  br label %8, !llvm.loop !126

28:                                               ; preds = %8
  %29 = load ptr, ptr %6, align 8, !tbaa !82
  store ptr null, ptr %29, align 8, !tbaa !30
  %30 = load ptr, ptr %5, align 8, !tbaa !30
  call void @llvm.lifetime.end.p0(i64 4, ptr %7) #9
  call void @llvm.lifetime.end.p0(i64 8, ptr %6) #9
  call void @llvm.lifetime.end.p0(i64 8, ptr %5) #9
  ret ptr %30
}

; Function Attrs: nounwind uwtable
define internal i32 @Map_CutList2Array(ptr noundef %0, ptr noundef %1) #0 {
  %3 = alloca ptr, align 8
  %4 = alloca ptr, align 8
  %5 = alloca i32, align 4
  store ptr %0, ptr %3, align 8, !tbaa !82
  store ptr %1, ptr %4, align 8, !tbaa !30
  call void @llvm.lifetime.start.p0(i64 4, ptr %5) #9
  store i32 0, ptr %5, align 4, !tbaa !8
  br label %6

6:                                                ; preds = %15, %2
  %7 = load ptr, ptr %4, align 8, !tbaa !30
  %8 = icmp ne ptr %7, null
  br i1 %8, label %9, label %21

9:                                                ; preds = %6
  %10 = load ptr, ptr %4, align 8, !tbaa !30
  %11 = load ptr, ptr %3, align 8, !tbaa !82
  %12 = load i32, ptr %5, align 4, !tbaa !8
  %13 = sext i32 %12 to i64
  %14 = getelementptr inbounds ptr, ptr %11, i64 %13
  store ptr %10, ptr %14, align 8, !tbaa !30
  br label %15

15:                                               ; preds = %9
  %16 = load ptr, ptr %4, align 8, !tbaa !30
  %17 = getelementptr inbounds nuw %struct.Map_CutStruct_t_, ptr %16, i32 0, i32 0
  %18 = load ptr, ptr %17, align 8, !tbaa !33
  store ptr %18, ptr %4, align 8, !tbaa !30
  %19 = load i32, ptr %5, align 4, !tbaa !8
  %20 = add nsw i32 %19, 1
  store i32 %20, ptr %5, align 4, !tbaa !8
  br label %6, !llvm.loop !120

21:                                               ; preds = %6
  %22 = load i32, ptr %5, align 4, !tbaa !8
  call void @llvm.lifetime.end.p0(i64 4, ptr %5) #9
  ret i32 %22
}

; Function Attrs: nounwind uwtable
define internal ptr @Map_CutSortCuts(ptr noundef %0, ptr noundef %1, ptr noundef %2) #0 {
  %4 = alloca ptr, align 8
  %5 = alloca ptr, align 8
  %6 = alloca ptr, align 8
  %7 = alloca ptr, align 8
  %8 = alloca i32, align 4
  %9 = alloca i32, align 4
  store ptr %0, ptr %4, align 8, !tbaa !3
  store ptr %1, ptr %5, align 8, !tbaa !55
  store ptr %2, ptr %6, align 8, !tbaa !30
  call void @llvm.lifetime.start.p0(i64 8, ptr %7) #9
  call void @llvm.lifetime.start.p0(i64 4, ptr %8) #9
  call void @llvm.lifetime.start.p0(i64 4, ptr %9) #9
  %10 = load ptr, ptr %5, align 8, !tbaa !55
  %11 = getelementptr inbounds nuw %struct.Map_CutTableStrutct_t, ptr %10, i32 0, i32 5
  %12 = load ptr, ptr %11, align 8, !tbaa !68
  %13 = load ptr, ptr %6, align 8, !tbaa !30
  %14 = call i32 @Map_CutList2Array(ptr noundef %12, ptr noundef %13)
  store i32 %14, ptr %8, align 4, !tbaa !8
  %15 = load ptr, ptr %5, align 8, !tbaa !55
  %16 = getelementptr inbounds nuw %struct.Map_CutTableStrutct_t, ptr %15, i32 0, i32 5
  %17 = load ptr, ptr %16, align 8, !tbaa !68
  %18 = load i32, ptr %8, align 4, !tbaa !8
  %19 = sext i32 %18 to i64
  call void @qsort(ptr noundef %17, i64 noundef %19, i64 noundef 8, ptr noundef @Map_CutSortCutsCompare)
  %20 = load i32, ptr %8, align 4, !tbaa !8
  %21 = icmp sgt i32 %20, 249
  br i1 %21, label %22, label %42

22:                                               ; preds = %3
  store i32 249, ptr %9, align 4, !tbaa !8
  br label %23

23:                                               ; preds = %38, %22
  %24 = load i32, ptr %9, align 4, !tbaa !8
  %25 = load i32, ptr %8, align 4, !tbaa !8
  %26 = icmp slt i32 %24, %25
  br i1 %26, label %27, label %41

27:                                               ; preds = %23
  %28 = load ptr, ptr %4, align 8, !tbaa !3
  %29 = getelementptr inbounds nuw %struct.Map_ManStruct_t_, ptr %28, i32 0, i32 37
  %30 = load ptr, ptr %29, align 8, !tbaa !101
  %31 = load ptr, ptr %5, align 8, !tbaa !55
  %32 = getelementptr inbounds nuw %struct.Map_CutTableStrutct_t, ptr %31, i32 0, i32 5
  %33 = load ptr, ptr %32, align 8, !tbaa !68
  %34 = load i32, ptr %9, align 4, !tbaa !8
  %35 = sext i32 %34 to i64
  %36 = getelementptr inbounds ptr, ptr %33, i64 %35
  %37 = load ptr, ptr %36, align 8, !tbaa !30
  call void @Extra_MmFixedEntryRecycle(ptr noundef %30, ptr noundef %37)
  br label %38

38:                                               ; preds = %27
  %39 = load i32, ptr %9, align 4, !tbaa !8
  %40 = add nsw i32 %39, 1
  store i32 %40, ptr %9, align 4, !tbaa !8
  br label %23, !llvm.loop !102

41:                                               ; preds = %23
  store i32 249, ptr %8, align 4, !tbaa !8
  br label %42

42:                                               ; preds = %41, %3
  %43 = load ptr, ptr %5, align 8, !tbaa !55
  %44 = getelementptr inbounds nuw %struct.Map_CutTableStrutct_t, ptr %43, i32 0, i32 5
  %45 = load ptr, ptr %44, align 8, !tbaa !68
  %46 = load i32, ptr %8, align 4, !tbaa !8
  %47 = call ptr @Map_CutArray2List(ptr noundef %45, i32 noundef %46)
  store ptr %47, ptr %7, align 8, !tbaa !30
  %48 = load ptr, ptr %7, align 8, !tbaa !30
  call void @llvm.lifetime.end.p0(i64 4, ptr %9) #9
  call void @llvm.lifetime.end.p0(i64 4, ptr %8) #9
  call void @llvm.lifetime.end.p0(i64 8, ptr %7) #9
  ret ptr %48
}