; Function Attrs: nounwind uwtable
define internal fastcc ptr @Map_CutSortCuts(ptr noundef readonly captures(none) %0, ptr noundef readonly captures(none) %1, ptr noundef %2) unnamed_addr #2 {
  %4 = alloca ptr, align 8
  %5 = getelementptr inbounds nuw i8, ptr %1, i64 40
  %6 = load ptr, ptr %5, align 8, !tbaa !59
  %.not7.i = icmp eq ptr %2, null
  br i1 %.not7.i, label %.thread21, label %.lr.ph.i

.thread21:                                        ; preds = %3
  tail call void @qsort(ptr noundef %6, i64 noundef 0, i64 noundef 8, ptr noundef nonnull @Map_CutSortCutsCompare) #18
  call void @llvm.lifetime.start.p0(i64 8, ptr nonnull %4)
  store ptr null, ptr %4, align 8, !tbaa !24
  br label %Map_CutArray2List.exit

.lr.ph.i:                                         ; preds = %3, %.lr.ph.i
  %indvars.iv25 = phi i32 [ %indvars.iv.next26, %.lr.ph.i ], [ 1, %3 ]
  %indvars.iv.i = phi i64 [ %indvars.iv.next.i, %.lr.ph.i ], [ 0, %3 ]
  %.068.i = phi ptr [ %8, %.lr.ph.i ], [ %2, %3 ]
  %7 = getelementptr inbounds nuw ptr, ptr %6, i64 %indvars.iv.i
  store ptr %.068.i, ptr %7, align 8, !tbaa !24
  %8 = load ptr, ptr %.068.i, align 8, !tbaa !64
  %indvars.iv.next.i = add nuw nsw i64 %indvars.iv.i, 1
  %.not.i = icmp eq ptr %8, null
  %indvars.iv.next26 = add i32 %indvars.iv25, 1
  br i1 %.not.i, label %Map_CutList2Array.exit, label %.lr.ph.i, !llvm.loop !65

Map_CutList2Array.exit:                           ; preds = %.lr.ph.i
  %9 = trunc nuw i64 %indvars.iv.next.i to i32
  %sext = shl i64 %indvars.iv.next.i, 32
  %10 = ashr exact i64 %sext, 32
  tail call void @qsort(ptr noundef nonnull %6, i64 noundef %10, i64 noundef 8, ptr noundef nonnull @Map_CutSortCutsCompare) #18
  %11 = icmp sgt i32 %9, 249
  br i1 %11, label %.preheader, label %19

.preheader:                                       ; preds = %Map_CutList2Array.exit
  %12 = getelementptr inbounds nuw i8, ptr %0, i64 1784
  %wide.trip.count = zext i32 %indvars.iv25 to i64
  br label %14

.thread:                                          ; preds = %14
  %13 = load ptr, ptr %5, align 8, !tbaa !59
  call void @llvm.lifetime.start.p0(i64 8, ptr nonnull %4)
  store ptr null, ptr %4, align 8, !tbaa !24
  br label %.lr.ph.preheader.i

14:                                               ; preds = %.preheader, %14
  %indvars.iv = phi i64 [ 249, %.preheader ], [ %indvars.iv.next, %14 ]
  %15 = load ptr, ptr %12, align 8, !tbaa !82
  %16 = load ptr, ptr %5, align 8, !tbaa !59
  %17 = getelementptr inbounds nuw ptr, ptr %16, i64 %indvars.iv
  %18 = load ptr, ptr %17, align 8, !tbaa !24
  tail call void @Extra_MmFixedEntryRecycle(ptr noundef %15, ptr noundef %18) #18
  %indvars.iv.next = add nuw nsw i64 %indvars.iv, 1
  %exitcond.not = icmp eq i64 %indvars.iv.next, %wide.trip.count
  br i1 %exitcond.not, label %.thread, label %14, !llvm.loop !83

19:                                               ; preds = %Map_CutList2Array.exit
  %20 = load ptr, ptr %5, align 8, !tbaa !59
  call void @llvm.lifetime.start.p0(i64 8, ptr nonnull %4)
  store ptr null, ptr %4, align 8, !tbaa !24
  %21 = icmp sgt i32 %9, 0
  br i1 %21, label %.lr.ph.preheader.i, label %Map_CutArray2List.exit

.lr.ph.preheader.i:                               ; preds = %.thread, %19
  %22 = phi ptr [ %13, %.thread ], [ %20, %19 ]
  %.01320 = phi i64 [ 249, %.thread ], [ %indvars.iv.next.i, %19 ]
  br label %.lr.ph.i15

.lr.ph.i15:                                       ; preds = %.lr.ph.i15, %.lr.ph.preheader.i
  %indvars.iv.i16 = phi i64 [ 0, %.lr.ph.preheader.i ], [ %indvars.iv.next.i17, %.lr.ph.i15 ]
  %.089.i = phi ptr [ %4, %.lr.ph.preheader.i ], [ %24, %.lr.ph.i15 ]
  %23 = getelementptr inbounds nuw ptr, ptr %22, i64 %indvars.iv.i16
  %24 = load ptr, ptr %23, align 8, !tbaa !24
  store ptr %24, ptr %.089.i, align 8, !tbaa !24
  %indvars.iv.next.i17 = add nuw nsw i64 %indvars.iv.i16, 1
  %exitcond.not.i = icmp eq i64 %indvars.iv.next.i17, %.01320
  br i1 %exitcond.not.i, label %Map_CutArray2List.exit, label %.lr.ph.i15, !llvm.loop !84

Map_CutArray2List.exit:                           ; preds = %.lr.ph.i15, %.thread21, %19
  %.08.lcssa.i = phi ptr [ %4, %19 ], [ %4, %.thread21 ], [ %24, %.lr.ph.i15 ]
  store ptr null, ptr %.08.lcssa.i, align 8, !tbaa !24
  %.0..0..0..0..0..0..i = load ptr, ptr %4, align 8, !tbaa !24
  call void @llvm.lifetime.end.p0(i64 8, ptr nonnull %4)
  ret ptr %.0..0..0..0..0..0..i
}